; Function Attrs: mustprogress uwtable
define void @_ZNK5ezSAT14lookup_literalEiRNSt7__cxx1112basic_stringIcSt11char_traitsIcESaIcEEE(ptr noundef nonnull readonly align 8 captures(none) dereferenceable(284) %0, i32 noundef %1, ptr noundef nonnull align 8 dereferenceable(32) %2) local_unnamed_addr #0 align 2 {
  %4 = getelementptr inbounds nuw i8, ptr %0, i64 64
  %5 = load ptr, ptr %4, align 8, !tbaa !77
  %6 = sext i32 %1 to i64
  %7 = getelementptr %"class.std::__cxx11::basic_string", ptr %5, i64 %6
  %8 = getelementptr i8, ptr %7, i64 -32
  tail call void @_ZNSt7__cxx1112basic_stringIcSt11char_traitsIcESaIcEE9_M_assignERKS4_(ptr noundef nonnull align 8 dereferenceable(32) %2, ptr noundef nonnull align 8 dereferenceable(32) %8)
  ret void
}